target datalayout = "e-m:e-p270:32:32-p271:32:32-p272:64:64-i64:64-i128:128-f80:128-n8:16:32:64-S128"
target triple = "x86_64-pc-linux-gnu"

%"class.llvm::StringRef" = type { ptr, i64 }
%"class.llvm::SmallVectorBase" = type { ptr, i32, i32 }
%"class.llvm::SmallVectorImpl.7" = type { %"class.llvm::SmallVectorTemplateBase.8" }
%"class.llvm::SmallVectorTemplateBase.8" = type { %"class.llvm::SmallVectorTemplateCommon.9" }
%"class.llvm::SmallVectorTemplateCommon.9" = type { %"class.llvm::SmallVectorBase" }
%"class.clang::format::BreakableToken" = type { ptr, ptr, i8, i32, ptr }
%"class.clang::format::BreakableComment" = type { %"class.clang::format::BreakableToken", %"class.llvm::SmallVector.44", %"class.llvm::SmallVector.44", %"class.llvm::SmallVector.49", %"class.llvm::SmallVector.51", i32, %"class.llvm::StringRef" }
%"class.llvm::SmallVector.44" = type { %"class.llvm::SmallVectorImpl.45", %"struct.llvm::SmallVectorStorage.48" }
%"class.llvm::SmallVectorImpl.45" = type { %"class.llvm::SmallVectorTemplateBase.46" }
%"class.llvm::SmallVectorTemplateBase.46" = type { %"class.llvm::SmallVectorTemplateCommon.47" }
%"class.llvm::SmallVectorTemplateCommon.47" = type { %"class.llvm::SmallVectorBase" }
%"struct.llvm::SmallVectorStorage.48" = type { [256 x i8] }
%"class.llvm::SmallVector.49" = type { %"class.llvm::SmallVectorImpl.7", %"struct.llvm::SmallVectorStorage.50" }
%"struct.llvm::SmallVectorStorage.50" = type { [128 x i8] }
%"class.llvm::SmallVector.51" = type { %"class.llvm::SmallVectorImpl.52", %"struct.llvm::SmallVectorStorage.55" }
%"class.llvm::SmallVectorImpl.52" = type { %"class.llvm::SmallVectorTemplateBase.53" }
%"class.llvm::SmallVectorTemplateBase.53" = type { %"class.llvm::SmallVectorTemplateCommon.54" }
%"class.llvm::SmallVectorTemplateCommon.54" = type { %"class.llvm::SmallVectorBase" }
%"struct.llvm::SmallVectorStorage.55" = type { [64 x i8] }
%"class.clang::format::BreakableBlockComment" = type <{ %"class.clang::format::BreakableComment", i32, i8, [3 x i8], %"class.llvm::StringRef", i32, i8, [3 x i8], i32, [4 x i8] }>

; Function Attrs: mustprogress nounwind uwtable
define linkonce_odr hidden noundef ptr @_ZNK4llvm25SmallVectorTemplateCommonIivE5beginEv(ptr noundef nonnull align 8 dereferenceable(16) %0) #0 comdat align 2 {
  %2 = alloca ptr, align 8
  store ptr %0, ptr %2, align 8
  %3 = load ptr, ptr %2, align 8
  %4 = getelementptr inbounds nuw %"class.llvm::SmallVectorBase", ptr %3, i32 0, i32 0
  %5 = load ptr, ptr %4, align 8
  ret ptr %5
}

; Function Attrs: mustprogress nounwind uwtable
define linkonce_odr noundef nonnull align 4 dereferenceable(4) ptr @_ZSt3maxIiERKT_S2_S2_(ptr noundef nonnull align 4 dereferenceable(4) %0, ptr noundef nonnull align 4 dereferenceable(4) %1) #0 comdat {
  %3 = alloca ptr, align 8
  %4 = alloca ptr, align 8
  %5 = alloca ptr, align 8
  store ptr %0, ptr %4, align 8
  store ptr %1, ptr %5, align 8
  %6 = load ptr, ptr %4, align 8
  %7 = load i32, ptr %6, align 4
  %8 = load ptr, ptr %5, align 8
  %9 = load i32, ptr %8, align 4
  %10 = icmp slt i32 %7, %9
  br i1 %10, label %11, label %13

11:                                               ; preds = %2
  %12 = load ptr, ptr %5, align 8
  store ptr %12, ptr %3, align 8
  br label %15

13:                                               ; preds = %2
  %14 = load ptr, ptr %4, align 8
  store ptr %14, ptr %3, align 8
  br label %15

15:                                               ; preds = %13, %11
  %16 = load ptr, ptr %3, align 8
  ret ptr %16
}

; Function Attrs: mustprogress nounwind uwtable
define linkonce_odr hidden noundef nonnull align 4 dereferenceable(4) ptr @_ZNK4llvm25SmallVectorTemplateCommonIivEixEm(ptr noundef nonnull align 8 dereferenceable(16) %0, i64 noundef %1) #0 comdat align 2 {
  %3 = alloca ptr, align 8
  %4 = alloca i64, align 8
  store ptr %0, ptr %3, align 8
  store i64 %1, ptr %4, align 8
  %5 = load ptr, ptr %3, align 8
  %6 = call noundef ptr @_ZNK4llvm25SmallVectorTemplateCommonIivE5beginEv(ptr noundef nonnull align 8 dereferenceable(16) %5)
  %7 = load i64, ptr %4, align 8
  %8 = getelementptr inbounds i32, ptr %6, i64 %7
  ret ptr %8
}

; Function Attrs: mustprogress nounwind uwtable
define dso_local noundef i32 @_ZNK5clang6format21BreakableBlockComment21getContentStartColumnEjb(ptr noundef nonnull align 8 dereferenceable(860) %0, i32 noundef %1, i1 noundef zeroext %2) unnamed_addr #0 align 2 {
  %4 = alloca i32, align 4
  %5 = alloca ptr, align 8
  %6 = alloca i32, align 4
  %7 = alloca i8, align 1
  %8 = alloca i32, align 4
  store ptr %0, ptr %5, align 8
  store i32 %1, ptr %6, align 4
  %9 = zext i1 %2 to i8
  store i8 %9, ptr %7, align 1
  %10 = load ptr, ptr %5, align 8
  %11 = load i8, ptr %7, align 1
  %12 = trunc i8 %11 to i1
  br i1 %12, label %13, label %16

13:                                               ; preds = %3
  %14 = getelementptr inbounds nuw %"class.clang::format::BreakableBlockComment", ptr %10, i32 0, i32 1
  %15 = load i32, ptr %14, align 8
  store i32 %15, ptr %4, align 4
  br label %23

16:                                               ; preds = %3
  store i32 0, ptr %8, align 4
  %17 = getelementptr inbounds nuw %"class.clang::format::BreakableComment", ptr %10, i32 0, i32 4
  %18 = load i32, ptr %6, align 4
  %19 = zext i32 %18 to i64
  %20 = call noundef nonnull align 4 dereferenceable(4) ptr @_ZNK4llvm25SmallVectorTemplateCommonIivEixEm(ptr noundef nonnull align 8 dereferenceable(16) %17, i64 noundef %19)
  %21 = call noundef nonnull align 4 dereferenceable(4) ptr @_ZSt3maxIiERKT_S2_S2_(ptr noundef nonnull align 4 dereferenceable(4) %8, ptr noundef nonnull align 4 dereferenceable(4) %20)
  %22 = load i32, ptr %21, align 4
  store i32 %22, ptr %4, align 4
  br label %23

23:                                               ; preds = %16, %13
  %24 = load i32, ptr %4, align 4
  ret i32 %24
}