; Function Attrs: mustprogress nofree norecurse nosync nounwind willreturn memory(read, inaccessiblemem: none) uwtable
define dso_local noundef i32 @_ZNK5clang6format21BreakableBlockComment21getContentStartColumnEjb(ptr nocapture noundef nonnull readonly align 8 dereferenceable(860) %0, i32 noundef %1, i1 noundef zeroext %2) unnamed_addr #8 align 2 {
  %4 = alloca i32, align 4
  br i1 %2, label %5, label %7

5:                                                ; preds = %3
  %6 = getelementptr inbounds nuw i8, ptr %0, i64 824
  br label %14

7:                                                ; preds = %3
  store i32 0, ptr %4, align 4
  %8 = getelementptr inbounds nuw i8, ptr %0, i64 720
  %9 = zext i32 %1 to i64
  %10 = load ptr, ptr %8, align 8
  %11 = getelementptr inbounds i32, ptr %10, i64 %9
  %12 = load i32, ptr %11, align 4
  %13 = icmp sgt i32 %12, 0
  %..i = select i1 %13, ptr %11, ptr %4
  br label %14

14:                                               ; preds = %7, %5
  %.0.in = phi ptr [ %6, %5 ], [ %..i, %7 ]
  %.0 = load i32, ptr %.0.in, align 4
  ret i32 %.0
}